(dp0
S'buildapc'
p1
(dp2
S'overwatch'
p3
I8
sS'pokemongo'
p4
I1
sS'videos'
p5
I0
sS'todayilearned'
p6
I0
sS'cfb'
p7
I0
sS'buildapc'
p8
I729
sS'friendsafari'
p9
I0
sS'wow'
p10
I0
sS'politics'
p11
I0
sS'nba'
p12
I0
sS'globaloffensivetrade'
p13
I0
sS'fantasyfootball'
p14
I0
sS'relationships'
p15
I0
sS'funny'
p16
I1
sS'nomansskythegame'
p17
I0
sS'pokemon'
p18
I0
sS'squaredcircle'
p19
I1
sS'adviceanimals'
p20
I0
sS'olympics'
p21
I0
sS'leagueoflegends'
p22
I0
sS'hiphopheads'
p23
I0
sS'worldnews'
p24
I1
sS'2007scape'
p25
I0
sS'the_donald'
p26
I0
sS'soccer'
p27
I0
sS'dota2'
p28
I2
sS'gaming'
p29
I5
sS'gifs'
p30
I0
sS'aww'
p31
I0
sS'jailbreak'
p32
I0
sS'destinythegame'
p33
I0
sS'showerthoughts'
p34
I1
sS'stevenuniverse'
p35
I0
sS'baseball'
p36
I0
sS'wtf'
p37
I0
sS'hearthstone'
p38
I0
sS'news'
p39
I1
sS'pokemontrades'
p40
I0
sS'mma'
p41
I0
sS'thesilphroad'
p42
I0
sS'globaloffensive'
p43
I4
sS'nfl'
p44
I0
sS'pcmasterrace'
p45
I126
sS'pics'
p46
I0
sS'movies'
p47
I1
sS'askreddit'
p48
I3
sS'games'
p49
I1
sS'anime'
p50
I0
sS'fitness'
p51
I0
sS'bigbrother'
p52
I0
ssS'pokemongo'
p53
(dp54
S'overwatch'
p55
I38
sS'pokemongo'
p56
I13094
sS'videos'
p57
I10
sS'todayilearned'
p58
I6
sS'cfb'
p59
I2
sS'buildapc'
p60
I0
sS'friendsafari'
p61
I0
sS'wow'
p62
I6
sS'politics'
p63
I9
sS'nba'
p64
I7
sS'globaloffensivetrade'
p65
I1
sS'fantasyfootball'
p66
I0
sS'relationships'
p67
I4
sS'funny'
p68
I44
sS'nomansskythegame'
p69
I21
sS'pokemon'
p70
I262
sS'squaredcircle'
p71
I6
sS'adviceanimals'
p72
I4
sS'olympics'
p73
I0
sS'leagueoflegends'
p74
I37
sS'hiphopheads'
p75
I0
sS'worldnews'
p76
I2
sS'2007scape'
p77
I33
sS'the_donald'
p78
I26
sS'soccer'
p79
I4
sS'dota2'
p80
I28
sS'gaming'
p81
I29
sS'gifs'
p82
I5
sS'aww'
p83
I3
sS'jailbreak'
p84
I17
sS'destinythegame'
p85
I44
sS'showerthoughts'
p86
I12
sS'stevenuniverse'
p87
I3
sS'baseball'
p88
I2
sS'wtf'
p89
I4
sS'hearthstone'
p90
I26
sS'news'
p91
I19
sS'pokemontrades'
p92
I1
sS'mma'
p93
I1
sS'thesilphroad'
p94
I1732
sS'globaloffensive'
p95
I11
sS'nfl'
p96
I6
sS'pcmasterrace'
p97
I4
sS'pics'
p98
I9
sS'movies'
p99
I2
sS'askreddit'
p100
I22
sS'games'
p101
I6
sS'anime'
p102
I3
sS'fitness'
p103
I5
sS'bigbrother'
p104
I2
ssS'videos'
p105
(dp106
S'overwatch'
p107
I3
sS'pokemongo'
p108
I4
sS'videos'
p109
I85501
sS'todayilearned'
p110
I21
sS'cfb'
p111
I2
sS'buildapc'
p112
I3
sS'friendsafari'
p113
I0
sS'wow'
p114
I2
sS'politics'
p115
I34
sS'nba'
p116
I12
sS'globaloffensivetrade'
p117
I0
sS'fantasyfootball'
p118
I1
sS'relationships'
p119
I4
sS'funny'
p120
I46
sS'nomansskythegame'
p121
I47
sS'pokemon'
p122
I0
sS'squaredcircle'
p123
I4
sS'adviceanimals'
p124
I4
sS'olympics'
p125
I9
sS'leagueoflegends'
p126
I5
sS'hiphopheads'
p127
I41
sS'worldnews'
p128
I27
sS'2007scape'
p129
I1
sS'the_donald'
p130
I74
sS'soccer'
p131
I11
sS'dota2'
p132
I12
sS'gaming'
p133
I33
sS'gifs'
p134
I23
sS'aww'
p135
I15
sS'jailbreak'
p136
I1
sS'destinythegame'
p137
I2
sS'showerthoughts'
p138
I9
sS'stevenuniverse'
p139
I0
sS'baseball'
p140
I4
sS'wtf'
p141
I51
sS'hearthstone'
p142
I0
sS'news'
p143
I44
sS'pokemontrades'
p144
I0
sS'mma'
p145
I7
sS'thesilphroad'
p146
I0
sS'globaloffensive'
p147
I5
sS'nfl'
p148
I16
sS'pcmasterrace'
p149
I11
sS'pics'
p150
I21
sS'movies'
p151
I23
sS'askreddit'
p152
I57
sS'games'
p153
I20
sS'anime'
p154
I6
sS'fitness'
p155
I29
sS'bigbrother'
p156
I0
ssS'todayilearned'
p157
(dp158
S'overwatch'
p159
I9
sS'pokemongo'
p160
I2
sS'videos'
p161
I21
sS'todayilearned'
p162
I1813
sS'cfb'
p163
I3
sS'buildapc'
p164
I1
sS'friendsafari'
p165
I0
sS'wow'
p166
I0
sS'politics'
p167
I32
sS'nba'
p168
I6
sS'globaloffensivetrade'
p169
I0
sS'fantasyfootball'
p170
I0
sS'relationships'
p171
I1
sS'funny'
p172
I27
sS'nomansskythegame'
p173
I1
sS'pokemon'
p174
I1
sS'squaredcircle'
p175
I24
sS'adviceanimals'
p176
I5
sS'olympics'
p177
I3
sS'leagueoflegends'
p178
I2
sS'hiphopheads'
p179
I3
sS'worldnews'
p180
I42
sS'2007scape'
p181
I3
sS'the_donald'
p182
I70
sS'soccer'
p183
I4
sS'dota2'
p184
I4
sS'gaming'
p185
I8
sS'gifs'
p186
I5
sS'aww'
p187
I5
sS'jailbreak'
p188
I0
sS'destinythegame'
p189
I3
sS'showerthoughts'
p190
I19
sS'stevenuniverse'
p191
I1
sS'baseball'
p192
I1
sS'wtf'
p193
I19
sS'hearthstone'
p194
I3
sS'news'
p195
I40
sS'pokemontrades'
p196
I0
sS'mma'
p197
I0
sS'thesilphroad'
p198
I1
sS'globaloffensive'
p199
I1
sS'nfl'
p200
I3
sS'pcmasterrace'
p201
I6
sS'pics'
p202
I17
sS'movies'
p203
I16
sS'askreddit'
p204
I74
sS'games'
p205
I6
sS'anime'
p206
I4
sS'fitness'
p207
I11
sS'bigbrother'
p208
I0
ssS'jailbreak'
p209
(dp210
S'overwatch'
p211
I0
sS'pokemongo'
p212
I13
sS'videos'
p213
I3
sS'todayilearned'
p214
I0
sS'cfb'
p215
I0
sS'buildapc'
p216
I0
sS'friendsafari'
p217
I0
sS'wow'
p218
I0
sS'politics'
p219
I0
sS'nba'
p220
I0
sS'globaloffensivetrade'
p221
I0
sS'fantasyfootball'
p222
I0
sS'relationships'
p223
I1
sS'funny'
p224
I2
sS'nomansskythegame'
p225
I0
sS'pokemon'
p226
I0
sS'squaredcircle'
p227
I0
sS'adviceanimals'
p228
I0
sS'olympics'
p229
I0
sS'leagueoflegends'
p230
I0
sS'hiphopheads'
p231
I0
sS'worldnews'
p232
I1
sS'2007scape'
p233
I0
sS'the_donald'
p234
I0
sS'soccer'
p235
I0
sS'dota2'
p236
I0
sS'gaming'
p237
I0
sS'gifs'
p238
I0
sS'aww'
p239
I0
sS'jailbreak'
p240
I20129
sS'destinythegame'
p241
I1
sS'showerthoughts'
p242
I0
sS'stevenuniverse'
p243
I0
sS'baseball'
p244
I0
sS'wtf'
p245
I0
sS'hearthstone'
p246
I0
sS'news'
p247
I0
sS'pokemontrades'
p248
I0
sS'mma'
p249
I0
sS'thesilphroad'
p250
I3
sS'globaloffensive'
p251
I0
sS'nfl'
p252
I0
sS'pcmasterrace'
p253
I1
sS'pics'
p254
I0
sS'movies'
p255
I0
sS'askreddit'
p256
I0
sS'games'
p257
I4
sS'anime'
p258
I0
sS'fitness'
p259
I0
sS'bigbrother'
p260
I0
ssS'friendsafari'
p261
(dp262
S'overwatch'
p263
I0
sS'pokemongo'
p264
I0
sS'videos'
p265
I0
sS'todayilearned'
p266
I0
sS'cfb'
p267
I0
sS'buildapc'
p268
I0
sS'friendsafari'
p269
I2238
sS'wow'
p270
I0
sS'politics'
p271
I0
sS'nba'
p272
I0
sS'globaloffensivetrade'
p273
I0
sS'fantasyfootball'
p274
I0
sS'relationships'
p275
I0
sS'funny'
p276
I0
sS'nomansskythegame'
p277
I0
sS'pokemon'
p278
I0
sS'squaredcircle'
p279
I0
sS'adviceanimals'
p280
I0
sS'olympics'
p281
I0
sS'leagueoflegends'
p282
I0
sS'hiphopheads'
p283
I0
sS'worldnews'
p284
I0
sS'2007scape'
p285
I0
sS'the_donald'
p286
I0
sS'soccer'
p287
I0
sS'dota2'
p288
I0
sS'gaming'
p289
I0
sS'gifs'
p290
I0
sS'aww'
p291
I0
sS'jailbreak'
p292
I0
sS'destinythegame'
p293
I0
sS'showerthoughts'
p294
I0
sS'stevenuniverse'
p295
I0
sS'baseball'
p296
I0
sS'wtf'
p297
I0
sS'hearthstone'
p298
I0
sS'news'
p299
I0
sS'pokemontrades'
p300
I4
sS'mma'
p301
I0
sS'thesilphroad'
p302
I0
sS'globaloffensive'
p303
I0
sS'nfl'
p304
I0
sS'pcmasterrace'
p305
I0
sS'pics'
p306
I0
sS'movies'
p307
I0
sS'askreddit'
p308
I0
sS'games'
p309
I0
sS'anime'
p310
I0
sS'fitness'
p311
I0
sS'bigbrother'
p312
I0
ssS'politics'
p313
(dp314
S'overwatch'
p315
I1
sS'pokemongo'
p316
I2
sS'videos'
p317
I24
sS'todayilearned'
p318
I17
sS'cfb'
p319
I4
sS'buildapc'
p320
I6
sS'friendsafari'
p321
I0
sS'wow'
p322
I0
sS'politics'
p323
I59611
sS'nba'
p324
I38
sS'globaloffensivetrade'
p325
I0
sS'fantasyfootball'
p326
I0
sS'relationships'
p327
I6
sS'funny'
p328
I33
sS'nomansskythegame'
p329
I3
sS'pokemon'
p330
I0
sS'squaredcircle'
p331
I3
sS'adviceanimals'
p332
I9
sS'olympics'
p333
I0
sS'leagueoflegends'
p334
I6
sS'hiphopheads'
p335
I2
sS'worldnews'
p336
I89
sS'2007scape'
p337
I1
sS'the_donald'
p338
I4741
sS'soccer'
p339
I5
sS'dota2'
p340
I3
sS'gaming'
p341
I7
sS'gifs'
p342
I3
sS'aww'
p343
I14
sS'jailbreak'
p344
I0
sS'destinythegame'
p345
I0
sS'showerthoughts'
p346
I12
sS'stevenuniverse'
p347
I1
sS'baseball'
p348
I3
sS'wtf'
p349
I10
sS'hearthstone'
p350
I2
sS'news'
p351
I406
sS'pokemontrades'
p352
I0
sS'mma'
p353
I1
sS'thesilphroad'
p354
I0
sS'globaloffensive'
p355
I0
sS'nfl'
p356
I36
sS'pcmasterrace'
p357
I6
sS'pics'
p358
I13
sS'movies'
p359
I10
sS'askreddit'
p360
I48
sS'games'
p361
I1
sS'anime'
p362
I1
sS'fitness'
p363
I1
sS'bigbrother'
p364
I1
ssS'nba'
p365
(dp366
S'overwatch'
p367
I1
sS'pokemongo'
p368
I3
sS'videos'
p369
I8
sS'todayilearned'
p370
I2
sS'cfb'
p371
I7
sS'buildapc'
p372
I0
sS'friendsafari'
p373
I0
sS'wow'
p374
I1
sS'politics'
p375
I14
sS'nba'
p376
I2297
sS'globaloffensivetrade'
p377
I0
sS'fantasyfootball'
p378
I2
sS'relationships'
p379
I5
sS'funny'
p380
I2
sS'nomansskythegame'
p381
I0
sS'pokemon'
p382
I1
sS'squaredcircle'
p383
I5
sS'adviceanimals'
p384
I3
sS'olympics'
p385
I1
sS'leagueoflegends'
p386
I6
sS'hiphopheads'
p387
I17
sS'worldnews'
p388
I8
sS'2007scape'
p389
I2
sS'the_donald'
p390
I18
sS'soccer'
p391
I40
sS'dota2'
p392
I3
sS'gaming'
p393
I4
sS'gifs'
p394
I0
sS'aww'
p395
I2
sS'jailbreak'
p396
I0
sS'destinythegame'
p397
I0
sS'showerthoughts'
p398
I1
sS'stevenuniverse'
p399
I0
sS'baseball'
p400
I13
sS'wtf'
p401
I4
sS'hearthstone'
p402
I2
sS'news'
p403
I9
sS'pokemontrades'
p404
I0
sS'mma'
p405
I1
sS'thesilphroad'
p406
I2
sS'globaloffensive'
p407
I1
sS'nfl'
p408
I101
sS'pcmasterrace'
p409
I1
sS'pics'
p410
I1
sS'movies'
p411
I0
sS'askreddit'
p412
I4
sS'games'
p413
I0
sS'anime'
p414
I1
sS'fitness'
p415
I2
sS'bigbrother'
p416
I0
ssS'pokemon'
p417
(dp418
S'overwatch'
p419
I7
sS'pokemongo'
p420
I90
sS'videos'
p421
I0
sS'todayilearned'
p422
I0
sS'cfb'
p423
I0
sS'buildapc'
p424
I0
sS'friendsafari'
p425
I30
sS'wow'
p426
I0
sS'politics'
p427
I0
sS'nba'
p428
I2
sS'globaloffensivetrade'
p429
I0
sS'fantasyfootball'
p430
I0
sS'relationships'
p431
I0
sS'funny'
p432
I3
sS'nomansskythegame'
p433
I0
sS'pokemon'
p434
I1006
sS'squaredcircle'
p435
I1
sS'adviceanimals'
p436
I1
sS'olympics'
p437
I0
sS'leagueoflegends'
p438
I5
sS'hiphopheads'
p439
I1
sS'worldnews'
p440
I0
sS'2007scape'
p441
I1
sS'the_donald'
p442
I3
sS'soccer'
p443
I0
sS'dota2'
p444
I6
sS'gaming'
p445
I9
sS'gifs'
p446
I3
sS'aww'
p447
I0
sS'jailbreak'
p448
I0
sS'destinythegame'
p449
I3
sS'showerthoughts'
p450
I1
sS'stevenuniverse'
p451
I8
sS'baseball'
p452
I0
sS'wtf'
p453
I0
sS'hearthstone'
p454
I2
sS'news'
p455
I0
sS'pokemontrades'
p456
I114
sS'mma'
p457
I0
sS'thesilphroad'
p458
I9
sS'globaloffensive'
p459
I0
sS'nfl'
p460
I0
sS'pcmasterrace'
p461
I0
sS'pics'
p462
I2
sS'movies'
p463
I1
sS'askreddit'
p464
I6
sS'games'
p465
I3
sS'anime'
p466
I11
sS'fitness'
p467
I0
sS'bigbrother'
p468
I0
ssS'fantasyfootball'
p469
(dp470
S'overwatch'
p471
I0
sS'pokemongo'
p472
I0
sS'videos'
p473
I3
sS'todayilearned'
p474
I1
sS'cfb'
p475
I1
sS'buildapc'
p476
I0
sS'friendsafari'
p477
I0
sS'wow'
p478
I0
sS'politics'
p479
I2
sS'nba'
p480
I0
sS'globaloffensivetrade'
p481
I0
sS'fantasyfootball'
p482
I4132
sS'relationships'
p483
I0
sS'funny'
p484
I1
sS'nomansskythegame'
p485
I0
sS'pokemon'
p486
I0
sS'squaredcircle'
p487
I2
sS'adviceanimals'
p488
I0
sS'olympics'
p489
I0
sS'leagueoflegends'
p490
I0
sS'hiphopheads'
p491
I0
sS'worldnews'
p492
I0
sS'2007scape'
p493
I0
sS'the_donald'
p494
I2
sS'soccer'
p495
I0
sS'dota2'
p496
I1
sS'gaming'
p497
I0
sS'gifs'
p498
I0
sS'aww'
p499
I0
sS'jailbreak'
p500
I0
sS'destinythegame'
p501
I0
sS'showerthoughts'
p502
I0
sS'stevenuniverse'
p503
I0
sS'baseball'
p504
I0
sS'wtf'
p505
I0
sS'hearthstone'
p506
I0
sS'news'
p507
I0
sS'pokemontrades'
p508
I0
sS'mma'
p509
I0
sS'thesilphroad'
p510
I0
sS'globaloffensive'
p511
I0
sS'nfl'
p512
I92
sS'pcmasterrace'
p513
I0
sS'pics'
p514
I0
sS'movies'
p515
I1
sS'askreddit'
p516
I2
sS'games'
p517
I0
sS'anime'
p518
I0
sS'fitness'
p519
I0
sS'bigbrother'
p520
I0
ssS'relationships'
p521
(dp522
S'overwatch'
p523
I0
sS'pokemongo'
p524
I0
sS'videos'
p525
I3
sS'todayilearned'
p526
I2
sS'cfb'
p527
I1
sS'buildapc'
p528
I0
sS'friendsafari'
p529
I0
sS'wow'
p530
I0
sS'politics'
p531
I2
sS'nba'
p532
I0
sS'globaloffensivetrade'
p533
I0
sS'fantasyfootball'
p534
I0
sS'relationships'
p535
I17504
sS'funny'
p536
I1
sS'nomansskythegame'
p537
I0
sS'pokemon'
p538
I0
sS'squaredcircle'
p539
I0
sS'adviceanimals'
p540
I0
sS'olympics'
p541
I0
sS'leagueoflegends'
p542
I0
sS'hiphopheads'
p543
I0
sS'worldnews'
p544
I1
sS'2007scape'
p545
I0
sS'the_donald'
p546
I3
sS'soccer'
p547
I0
sS'dota2'
p548
I0
sS'gaming'
p549
I0
sS'gifs'
p550
I0
sS'aww'
p551
I2
sS'jailbreak'
p552
I0
sS'destinythegame'
p553
I0
sS'showerthoughts'
p554
I1
sS'stevenuniverse'
p555
I0
sS'baseball'
p556
I0
sS'wtf'
p557
I5
sS'hearthstone'
p558
I0
sS'news'
p559
I1
sS'pokemontrades'
p560
I0
sS'mma'
p561
I1
sS'thesilphroad'
p562
I1
sS'globaloffensive'
p563
I0
sS'nfl'
p564
I0
sS'pcmasterrace'
p565
I0
sS'pics'
p566
I0
sS'movies'
p567
I1
sS'askreddit'
p568
I12
sS'games'
p569
I0
sS'anime'
p570
I0
sS'fitness'
p571
I14
sS'bigbrother'
p572
I0
ssS'GlobalOffensive'
p573
(dp574
S'overwatch'
p575
I27
sS'pokemongo'
p576
I10
sS'videos'
p577
I3
sS'todayilearned'
p578
I2
sS'cfb'
p579
I0
sS'buildapc'
p580
I95
sS'friendsafari'
p581
I0
sS'wow'
p582
I0
sS'politics'
p583
I0
sS'nba'
p584
I8
sS'globaloffensivetrade'
p585
I313
sS'fantasyfootball'
p586
I0
sS'relationships'
p587
I2
sS'funny'
p588
I1
sS'nomansskythegame'
p589
I1
sS'pokemon'
p590
I0
sS'squaredcircle'
p591
I1
sS'adviceanimals'
p592
I0
sS'olympics'
p593
I0
sS'leagueoflegends'
p594
I21
sS'hiphopheads'
p595
I0
sS'worldnews'
p596
I3
sS'2007scape'
p597
I8
sS'the_donald'
p598
I11
sS'soccer'
p599
I10
sS'dota2'
p600
I98
sS'gaming'
p601
I19
sS'gifs'
p602
I1
sS'aww'
p603
I1
sS'jailbreak'
p604
I0
sS'destinythegame'
p605
I1
sS'showerthoughts'
p606
I3
sS'stevenuniverse'
p607
I0
sS'baseball'
p608
I1
sS'wtf'
p609
I0
sS'hearthstone'
p610
I12
sS'news'
p611
I2
sS'pokemontrades'
p612
I0
sS'mma'
p613
I0
sS'thesilphroad'
p614
I0
sS'globaloffensive'
p615
I21031
sS'nfl'
p616
I7
sS'pcmasterrace'
p617
I17
sS'pics'
p618
I1
sS'movies'
p619
I1
sS'askreddit'
p620
I2
sS'games'
p621
I6
sS'anime'
p622
I1
sS'fitness'
p623
I3
sS'bigbrother'
p624
I0
ssS'BigBrother'
p625
(dp626
S'overwatch'
p627
I0
sS'pokemongo'
p628
I0
sS'videos'
p629
I0
sS'todayilearned'
p630
I0
sS'cfb'
p631
I0
sS'buildapc'
p632
I0
sS'friendsafari'
p633
I0
sS'wow'
p634
I0
sS'politics'
p635
I3
sS'nba'
p636
I4
sS'globaloffensivetrade'
p637
I0
sS'fantasyfootball'
p638
I0
sS'relationships'
p639
I4
sS'funny'
p640
I1
sS'nomansskythegame'
p641
I0
sS'pokemon'
p642
I0
sS'squaredcircle'
p643
I4
sS'adviceanimals'
p644
I0
sS'olympics'
p645
I0
sS'leagueoflegends'
p646
I1
sS'hiphopheads'
p647
I1
sS'worldnews'
p648
I1
sS'2007scape'
p649
I0
sS'the_donald'
p650
I4
sS'soccer'
p651
I0
sS'dota2'
p652
I1
sS'gaming'
p653
I0
sS'gifs'
p654
I2
sS'aww'
p655
I1
sS'jailbreak'
p656
I0
sS'destinythegame'
p657
I0
sS'showerthoughts'
p658
I2
sS'stevenuniverse'
p659
I0
sS'baseball'
p660
I0
sS'wtf'
p661
I0
sS'hearthstone'
p662
I0
sS'news'
p663
I9
sS'pokemontrades'
p664
I0
sS'mma'
p665
I1
sS'thesilphroad'
p666
I0
sS'globaloffensive'
p667
I0
sS'nfl'
p668
I7
sS'pcmasterrace'
p669
I1
sS'pics'
p670
I1
sS'movies'
p671
I0
sS'askreddit'
p672
I5
sS'games'
p673
I0
sS'anime'
p674
I0
sS'fitness'
p675
I0
sS'bigbrother'
p676
I859
ssS'DestinyTheGame'
p677
(dp678
S'overwatch'
p679
I9
sS'pokemongo'
p680
I6
sS'videos'
p681
I0
sS'todayilearned'
p682
I2
sS'cfb'
p683
I0
sS'buildapc'
p684
I0
sS'friendsafari'
p685
I0
sS'wow'
p686
I1
sS'politics'
p687
I0
sS'nba'
p688
I0
sS'globaloffensivetrade'
p689
I0
sS'fantasyfootball'
p690
I0
sS'relationships'
p691
I0
sS'funny'
p692
I1
sS'nomansskythegame'
p693
I8
sS'pokemon'
p694
I0
sS'squaredcircle'
p695
I0
sS'adviceanimals'
p696
I0
sS'olympics'
p697
I0
sS'leagueoflegends'
p698
I1
sS'hiphopheads'
p699
I0
sS'worldnews'
p700
I0
sS'2007scape'
p701
I0
sS'the_donald'
p702
I10
sS'soccer'
p703
I0
sS'dota2'
p704
I0
sS'gaming'
p705
I30
sS'gifs'
p706
I2
sS'aww'
p707
I0
sS'jailbreak'
p708
I0
sS'destinythegame'
p709
I3397
sS'showerthoughts'
p710
I3
sS'stevenuniverse'
p711
I0
sS'baseball'
p712
I0
sS'wtf'
p713
I0
sS'hearthstone'
p714
I1
sS'news'
p715
I0
sS'pokemontrades'
p716
I0
sS'mma'
p717
I0
sS'thesilphroad'
p718
I0
sS'globaloffensive'
p719
I1
sS'nfl'
p720
I0
sS'pcmasterrace'
p721
I4
sS'pics'
p722
I0
sS'movies'
p723
I0
sS'askreddit'
p724
I0
sS'games'
p725
I8
sS'anime'
p726
I0
sS'fitness'
p727
I2
sS'bigbrother'
p728
I0
ssS'SquaredCircle'
p729
(dp730
S'overwatch'
p731
I0
sS'pokemongo'
p732
I6
sS'videos'
p733
I3
sS'todayilearned'
p734
I2
sS'cfb'
p735
I3
sS'buildapc'
p736
I0
sS'friendsafari'
p737
I0
sS'wow'
p738
I1
sS'politics'
p739
I6
sS'nba'
p740
I12
sS'globaloffensivetrade'
p741
I0
sS'fantasyfootball'
p742
I0
sS'relationships'
p743
I0
sS'funny'
p744
I2
sS'nomansskythegame'
p745
I2
sS'pokemon'
p746
I5
sS'squaredcircle'
p747
I8629
sS'adviceanimals'
p748
I52
sS'olympics'
p749
I0
sS'leagueoflegends'
p750
I8
sS'hiphopheads'
p751
I14
sS'worldnews'
p752
I3
sS'2007scape'
p753
I0
sS'the_donald'
p754
I11
sS'soccer'
p755
I17
sS'dota2'
p756
I10
sS'gaming'
p757
I4
sS'gifs'
p758
I0
sS'aww'
p759
I5
sS'jailbreak'
p760
I0
sS'destinythegame'
p761
I0
sS'showerthoughts'
p762
I5
sS'stevenuniverse'
p763
I1
sS'baseball'
p764
I3
sS'wtf'
p765
I1
sS'hearthstone'
p766
I1
sS'news'
p767
I3
sS'pokemontrades'
p768
I0
sS'mma'
p769
I53
sS'thesilphroad'
p770
I0
sS'globaloffensive'
p771
I1
sS'nfl'
p772
I22
sS'pcmasterrace'
p773
I1
sS'pics'
p774
I2
sS'movies'
p775
I7
sS'askreddit'
p776
I8
sS'games'
p777
I2
sS'anime'
p778
I2
sS'fitness'
p779
I1
sS'bigbrother'
p780
I2
ssS'Showerthoughts'
p781
(dp782
S'overwatch'
p783
I5
sS'pokemongo'
p784
I8
sS'videos'
p785
I11
sS'todayilearned'
p786
I26
sS'cfb'
p787
I0
sS'buildapc'
p788
I2
sS'friendsafari'
p789
I0
sS'wow'
p790
I0
sS'politics'
p791
I27
sS'nba'
p792
I1
sS'globaloffensivetrade'
p793
I0
sS'fantasyfootball'
p794
I0
sS'relationships'
p795
I23
sS'funny'
p796
I48
sS'nomansskythegame'
p797
I3
sS'pokemon'
p798
I3
sS'squaredcircle'
p799
I1
sS'adviceanimals'
p800
I7
sS'olympics'
p801
I3
sS'leagueoflegends'
p802
I2
sS'hiphopheads'
p803
I1
sS'worldnews'
p804
I20
sS'2007scape'
p805
I4
sS'the_donald'
p806
I35
sS'soccer'
p807
I1
sS'dota2'
p808
I2
sS'gaming'
p809
I8
sS'gifs'
p810
I9
sS'aww'
p811
I16
sS'jailbreak'
p812
I0
sS'destinythegame'
p813
I1
sS'showerthoughts'
p814
I1545
sS'stevenuniverse'
p815
I0
sS'baseball'
p816
I0
sS'wtf'
p817
I9
sS'hearthstone'
p818
I2
sS'news'
p819
I38
sS'pokemontrades'
p820
I0
sS'mma'
p821
I2
sS'thesilphroad'
p822
I2
sS'globaloffensive'
p823
I4
sS'nfl'
p824
I6
sS'pcmasterrace'
p825
I11
sS'pics'
p826
I24
sS'movies'
p827
I15
sS'askreddit'
p828
I161
sS'games'
p829
I0
sS'anime'
p830
I1
sS'fitness'
p831
I5
sS'bigbrother'
p832
I0
ssS'NoMansSkyTheGame'
p833
(dp834
S'overwatch'
p835
I14
sS'pokemongo'
p836
I66
sS'videos'
p837
I10
sS'todayilearned'
p838
I3
sS'cfb'
p839
I5
sS'buildapc'
p840
I55
sS'friendsafari'
p841
I0
sS'wow'
p842
I1
sS'politics'
p843
I27
sS'nba'
p844
I0
sS'globaloffensivetrade'
p845
I0
sS'fantasyfootball'
p846
I0
sS'relationships'
p847
I7
sS'funny'
p848
I7
sS'nomansskythegame'
p849
I10584
sS'pokemon'
p850
I1
sS'squaredcircle'
p851
I3
sS'adviceanimals'
p852
I0
sS'olympics'
p853
I0
sS'leagueoflegends'
p854
I8
sS'hiphopheads'
p855
I1
sS'worldnews'
p856
I2
sS'2007scape'
p857
I2
sS'the_donald'
p858
I45
sS'soccer'
p859
I1
sS'dota2'
p860
I7
sS'gaming'
p861
I175
sS'gifs'
p862
I1
sS'aww'
p863
I4
sS'jailbreak'
p864
I0
sS'destinythegame'
p865
I51
sS'showerthoughts'
p866
I6
sS'stevenuniverse'
p867
I3
sS'baseball'
p868
I2
sS'wtf'
p869
I2
sS'hearthstone'
p870
I5
sS'news'
p871
I8
sS'pokemontrades'
p872
I0
sS'mma'
p873
I1
sS'thesilphroad'
p874
I11
sS'globaloffensive'
p875
I4
sS'nfl'
p876
I9
sS'pcmasterrace'
p877
I111
sS'pics'
p878
I7
sS'movies'
p879
I4
sS'askreddit'
p880
I11
sS'games'
p881
I257
sS'anime'
p882
I1
sS'fitness'
p883
I2
sS'bigbrother'
p884
I0
ssS'2007scape'
p885
(dp886
S'overwatch'
p887
I0
sS'pokemongo'
p888
I3
sS'videos'
p889
I1
sS'todayilearned'
p890
I0
sS'fitness'
p891
I0
sS'cfb'
p892
I1
sS'buildapc'
p893
I0
sS'squaredcircle'
p894
I0
sS'friendsafari'
p895
I0
sS'politics'
p896
I1
sS'nba'
p897
I0
sS'globaloffensivetrade'
p898
I0
sS'fantasyfootball'
p899
I0
sS'relationships'
p900
I0
sS'funny'
p901
I1
sS'nomansskythegame'
p902
I1
sS'pokemon'
p903
I0
sS'bigbrother'
p904
I0
sS'adviceanimals'
p905
I0
sS'olympics'
p906
I0
sS'leagueoflegends'
p907
I4
sS'hiphopheads'
p908
I0
sS'worldnews'
p909
I3
sS'2007scape'
p910
I2128
sS'the_donald'
p911
I6
sS'soccer'
p912
I0
sS'dota2'
p913
I2
sS'gaming'
p914
I2
sS'globaloffensive'
p915
I3
sS'aww'
p916
I1
sS'jailbreak'
p917
I0
sS'destinythegame'
p918
I1
sS'showerthoughts'
p919
I0
sS'stevenuniverse'
p920
I0
sS'baseball'
p921
I0
sS'wtf'
p922
I1
sS'hearthstone'
p923
I3
sS'news'
p924
I2
sS'pokemontrades'
p925
I0
sS'mma'
p926
I0
sS'thesilphroad'
p927
I0
sS'gifs'
p928
I0
sS'nfl'
p929
I0
sS'pics'
p930
I1
sS'movies'
p931
I0
sS'askreddit'
p932
I10
sS'games'
p933
I2
sS'anime'
p934
I0
sS'pcmasterrace'
p935
I1
sS'wow'
p936
I5
ssS'leagueoflegends'
p937
(dp938
S'overwatch'
p939
I30
sS'pokemongo'
p940
I26
sS'videos'
p941
I3
sS'todayilearned'
p942
I2
sS'fitness'
p943
I3
sS'cfb'
p944
I1
sS'buildapc'
p945
I6
sS'squaredcircle'
p946
I13
sS'friendsafari'
p947
I0
sS'politics'
p948
I7
sS'nba'
p949
I11
sS'globaloffensivetrade'
p950
I0
sS'fantasyfootball'
p951
I0
sS'relationships'
p952
I0
sS'funny'
p953
I6
sS'nomansskythegame'
p954
I3
sS'pokemon'
p955
I0
sS'bigbrother'
p956
I0
sS'adviceanimals'
p957
I2
sS'olympics'
p958
I0
sS'leagueoflegends'
p959
I11780
sS'hiphopheads'
p960
I1
sS'worldnews'
p961
I2
sS'2007scape'
p962
I0
sS'the_donald'
p963
I14
sS'soccer'
p964
I8
sS'dota2'
p965
I127
sS'gaming'
p966
I7
sS'globaloffensive'
p967
I41
sS'aww'
p968
I3
sS'jailbreak'
p969
I1
sS'destinythegame'
p970
I0
sS'showerthoughts'
p971
I6
sS'stevenuniverse'
p972
I0
sS'baseball'
p973
I1
sS'wtf'
p974
I2
sS'hearthstone'
p975
I21
sS'news'
p976
I3
sS'pokemontrades'
p977
I0
sS'mma'
p978
I1
sS'thesilphroad'
p979
I0
sS'gifs'
p980
I1
sS'nfl'
p981
I5
sS'pics'
p982
I3
sS'movies'
p983
I1
sS'askreddit'
p984
I23
sS'games'
p985
I4
sS'anime'
p986
I13
sS'pcmasterrace'
p987
I6
sS'wow'
p988
I9
ssS'WTF'
p989
(dp990
S'overwatch'
p991
I2
sS'pokemongo'
p992
I0
sS'videos'
p993
I22
sS'todayilearned'
p994
I7
sS'cfb'
p995
I0
sS'buildapc'
p996
I1
sS'friendsafari'
p997
I0
sS'wow'
p998
I5
sS'politics'
p999
I5
sS'nba'
p1000
I0
sS'globaloffensivetrade'
p1001
I0
sS'fantasyfootball'
p1002
I0
sS'relationships'
p1003
I0
sS'funny'
p1004
I131
sS'nomansskythegame'
p1005
I5
sS'pokemon'
p1006
I1
sS'squaredcircle'
p1007
I3
sS'adviceanimals'
p1008
I3
sS'olympics'
p1009
I0
sS'leagueoflegends'
p1010
I4
sS'hiphopheads'
p1011
I1
sS'worldnews'
p1012
I4
sS'2007scape'
p1013
I0
sS'the_donald'
p1014
I15
sS'soccer'
p1015
I0
sS'dota2'
p1016
I2
sS'gaming'
p1017
I2
sS'gifs'
p1018
I35
sS'aww'
p1019
I87
sS'jailbreak'
p1020
I0
sS'destinythegame'
p1021
I0
sS'showerthoughts'
p1022
I3
sS'stevenuniverse'
p1023
I0
sS'baseball'
p1024
I1
sS'wtf'
p1025
I1124
sS'hearthstone'
p1026
I0
sS'news'
p1027
I7
sS'pokemontrades'
p1028
I0
sS'mma'
p1029
I1
sS'thesilphroad'
p1030
I0
sS'globaloffensive'
p1031
I0
sS'nfl'
p1032
I1
sS'pcmasterrace'
p1033
I0
sS'pics'
p1034
I28
sS'movies'
p1035
I3
sS'askreddit'
p1036
I38
sS'games'
p1037
I0
sS'anime'
p1038
I0
sS'fitness'
p1039
I3
sS'bigbrother'
p1040
I0
ssS'worldnews'
p1041
(dp1042
S'overwatch'
p1043
I2
sS'pokemongo'
p1044
I4
sS'videos'
p1045
I15
sS'todayilearned'
p1046
I25
sS'cfb'
p1047
I1
sS'buildapc'
p1048
I0
sS'friendsafari'
p1049
I0
sS'wow'
p1050
I2
sS'politics'
p1051
I145
sS'nba'
p1052
I4
sS'globaloffensivetrade'
p1053
I0
sS'fantasyfootball'
p1054
I0
sS'relationships'
p1055
I1
sS'funny'
p1056
I9
sS'nomansskythegame'
p1057
I1
sS'pokemon'
p1058
I0
sS'squaredcircle'
p1059
I5
sS'adviceanimals'
p1060
I1
sS'olympics'
p1061
I17
sS'leagueoflegends'
p1062
I3
sS'hiphopheads'
p1063
I1
sS'worldnews'
p1064
I34354
sS'2007scape'
p1065
I7
sS'the_donald'
p1066
I203
sS'soccer'
p1067
I7
sS'dota2'
p1068
I7
sS'gaming'
p1069
I1
sS'gifs'
p1070
I7
sS'aww'
p1071
I7
sS'jailbreak'
p1072
I0
sS'destinythegame'
p1073
I0
sS'showerthoughts'
p1074
I3
sS'stevenuniverse'
p1075
I0
sS'baseball'
p1076
I0
sS'wtf'
p1077
I8
sS'hearthstone'
p1078
I2
sS'news'
p1079
I132
sS'pokemontrades'
p1080
I0
sS'mma'
p1081
I0
sS'thesilphroad'
p1082
I0
sS'globaloffensive'
p1083
I0
sS'nfl'
p1084
I5
sS'pcmasterrace'
p1085
I5
sS'pics'
p1086
I8
sS'movies'
p1087
I2
sS'askreddit'
p1088
I41
sS'games'
p1089
I0
sS'anime'
p1090
I10
sS'fitness'
p1091
I0
sS'bigbrother'
p1092
I0
ssS'olympics'
p1093
(dp1094
S'overwatch'
p1095
I1
sS'pokemongo'
p1096
I0
sS'videos'
p1097
I35
sS'todayilearned'
p1098
I7
sS'cfb'
p1099
I7
sS'buildapc'
p1100
I0
sS'friendsafari'
p1101
I0
sS'wow'
p1102
I0
sS'politics'
p1103
I4
sS'nba'
p1104
I32
sS'globaloffensivetrade'
p1105
I0
sS'fantasyfootball'
p1106
I0
sS'relationships'
p1107
I0
sS'funny'
p1108
I5
sS'nomansskythegame'
p1109
I1
sS'pokemon'
p1110
I1
sS'squaredcircle'
p1111
I7
sS'adviceanimals'
p1112
I0
sS'olympics'
p1113
I741
sS'leagueoflegends'
p1114
I1
sS'hiphopheads'
p1115
I0
sS'worldnews'
p1116
I29
sS'2007scape'
p1117
I0
sS'the_donald'
p1118
I26
sS'soccer'
p1119
I58
sS'dota2'
p1120
I0
sS'gaming'
p1121
I0
sS'gifs'
p1122
I11
sS'aww'
p1123
I4
sS'jailbreak'
p1124
I0
sS'destinythegame'
p1125
I0
sS'showerthoughts'
p1126
I4
sS'stevenuniverse'
p1127
I0
sS'baseball'
p1128
I8
sS'wtf'
p1129
I2
sS'hearthstone'
p1130
I0
sS'news'
p1131
I18
sS'pokemontrades'
p1132
I0
sS'mma'
p1133
I9
sS'thesilphroad'
p1134
I0
sS'globaloffensive'
p1135
I0
sS'nfl'
p1136
I11
sS'pcmasterrace'
p1137
I0
sS'pics'
p1138
I13
sS'movies'
p1139
I4
sS'askreddit'
p1140
I7
sS'games'
p1141
I0
sS'anime'
p1142
I5
sS'fitness'
p1143
I2
sS'bigbrother'
p1144
I0
ssS'pcmasterrace'
p1145
(dp1146
S'overwatch'
p1147
I25
sS'pokemongo'
p1148
I4
sS'videos'
p1149
I0
sS'todayilearned'
p1150
I0
sS'cfb'
p1151
I0
sS'buildapc'
p1152
I300
sS'friendsafari'
p1153
I0
sS'wow'
p1154
I2
sS'politics'
p1155
I3
sS'nba'
p1156
I0
sS'globaloffensivetrade'
p1157
I1
sS'fantasyfootball'
p1158
I0
sS'relationships'
p1159
I3
sS'funny'
p1160
I14
sS'nomansskythegame'
p1161
I62
sS'pokemon'
p1162
I0
sS'squaredcircle'
p1163
I4
sS'adviceanimals'
p1164
I1
sS'olympics'
p1165
I0
sS'leagueoflegends'
p1166
I5
sS'hiphopheads'
p1167
I1
sS'worldnews'
p1168
I1
sS'2007scape'
p1169
I1
sS'the_donald'
p1170
I18
sS'soccer'
p1171
I0
sS'dota2'
p1172
I15
sS'gaming'
p1173
I3
sS'gifs'
p1174
I1
sS'aww'
p1175
I6
sS'jailbreak'
p1176
I3
sS'destinythegame'
p1177
I5
sS'showerthoughts'
p1178
I1
sS'stevenuniverse'
p1179
I0
sS'baseball'
p1180
I0
sS'wtf'
p1181
I1
sS'hearthstone'
p1182
I1
sS'news'
p1183
I5
sS'pokemontrades'
p1184
I0
sS'mma'
p1185
I1
sS'thesilphroad'
p1186
I0
sS'globaloffensive'
p1187
I17
sS'nfl'
p1188
I0
sS'pcmasterrace'
p1189
I8221
sS'pics'
p1190
I2
sS'movies'
p1191
I0
sS'askreddit'
p1192
I7
sS'games'
p1193
I14
sS'anime'
p1194
I7
sS'fitness'
p1195
I3
sS'bigbrother'
p1196
I0
ssS'soccer'
p1197
(dp1198
S'overwatch'
p1199
I1
sS'pokemongo'
p1200
I6
sS'videos'
p1201
I16
sS'todayilearned'
p1202
I1
sS'cfb'
p1203
I2
sS'buildapc'
p1204
I0
sS'friendsafari'
p1205
I0
sS'wow'
p1206
I0
sS'politics'
p1207
I13
sS'nba'
p1208
I38
sS'globaloffensivetrade'
p1209
I0
sS'fantasyfootball'
p1210
I0
sS'relationships'
p1211
I0
sS'funny'
p1212
I7
sS'nomansskythegame'
p1213
I0
sS'pokemon'
p1214
I0
sS'squaredcircle'
p1215
I9
sS'adviceanimals'
p1216
I3
sS'olympics'
p1217
I14
sS'leagueoflegends'
p1218
I4
sS'hiphopheads'
p1219
I5
sS'worldnews'
p1220
I38
sS'2007scape'
p1221
I1
sS'the_donald'
p1222
I19
sS'soccer'
p1223
I5824
sS'dota2'
p1224
I3
sS'gaming'
p1225
I5
sS'gifs'
p1226
I2
sS'aww'
p1227
I3
sS'jailbreak'
p1228
I0
sS'destinythegame'
p1229
I0
sS'showerthoughts'
p1230
I0
sS'stevenuniverse'
p1231
I0
sS'baseball'
p1232
I4
sS'wtf'
p1233
I6
sS'hearthstone'
p1234
I2
sS'news'
p1235
I8
sS'pokemontrades'
p1236
I0
sS'mma'
p1237
I5
sS'thesilphroad'
p1238
I0
sS'globaloffensive'
p1239
I3
sS'nfl'
p1240
I15
sS'pcmasterrace'
p1241
I2
sS'pics'
p1242
I8
sS'movies'
p1243
I3
sS'askreddit'
p1244
I15
sS'games'
p1245
I4
sS'anime'
p1246
I4
sS'fitness'
p1247
I5
sS'bigbrother'
p1248
I0
ssS'GlobalOffensiveTrade'
p1249
(dp1250
S'overwatch'
p1251
I0
sS'pokemongo'
p1252
I0
sS'videos'
p1253
I0
sS'todayilearned'
p1254
I0
sS'cfb'
p1255
I0
sS'buildapc'
p1256
I0
sS'friendsafari'
p1257
I0
sS'wow'
p1258
I0
sS'politics'
p1259
I0
sS'nba'
p1260
I0
sS'globaloffensivetrade'
p1261
I80283
sS'fantasyfootball'
p1262
I0
sS'relationships'
p1263
I0
sS'funny'
p1264
I0
sS'nomansskythegame'
p1265
I0
sS'pokemon'
p1266
I0
sS'squaredcircle'
p1267
I0
sS'adviceanimals'
p1268
I0
sS'olympics'
p1269
I0
sS'leagueoflegends'
p1270
I0
sS'hiphopheads'
p1271
I0
sS'worldnews'
p1272
I0
sS'2007scape'
p1273
I0
sS'the_donald'
p1274
I0
sS'soccer'
p1275
I0
sS'dota2'
p1276
I0
sS'gaming'
p1277
I0
sS'gifs'
p1278
I0
sS'aww'
p1279
I0
sS'jailbreak'
p1280
I0
sS'destinythegame'
p1281
I0
sS'showerthoughts'
p1282
I0
sS'stevenuniverse'
p1283
I0
sS'baseball'
p1284
I0
sS'wtf'
p1285
I1
sS'hearthstone'
p1286
I1
sS'news'
p1287
I0
sS'pokemontrades'
p1288
I0
sS'mma'
p1289
I0
sS'thesilphroad'
p1290
I0
sS'globaloffensive'
p1291
I24
sS'nfl'
p1292
I0
sS'pcmasterrace'
p1293
I0
sS'pics'
p1294
I0
sS'movies'
p1295
I0
sS'askreddit'
p1296
I0
sS'games'
p1297
I0
sS'anime'
p1298
I0
sS'fitness'
p1299
I0
sS'bigbrother'
p1300
I0
ssS'TheSilphRoad'
p1301
(dp1302
S'overwatch'
p1303
I6
sS'pokemongo'
p1304
I998
sS'videos'
p1305
I0
sS'todayilearned'
p1306
I2
sS'cfb'
p1307
I0
sS'buildapc'
p1308
I0
sS'friendsafari'
p1309
I0
sS'wow'
p1310
I0
sS'politics'
p1311
I0
sS'nba'
p1312
I0
sS'globaloffensivetrade'
p1313
I0
sS'fantasyfootball'
p1314
I0
sS'relationships'
p1315
I1
sS'funny'
p1316
I2
sS'nomansskythegame'
p1317
I1
sS'pokemon'
p1318
I10
sS'squaredcircle'
p1319
I0
sS'adviceanimals'
p1320
I0
sS'olympics'
p1321
I1
sS'leagueoflegends'
p1322
I6
sS'hiphopheads'
p1323
I0
sS'worldnews'
p1324
I0
sS'2007scape'
p1325
I9
sS'the_donald'
p1326
I0
sS'soccer'
p1327
I0
sS'dota2'
p1328
I6
sS'gaming'
p1329
I3
sS'gifs'
p1330
I1
sS'aww'
p1331
I0
sS'jailbreak'
p1332
I1
sS'destinythegame'
p1333
I2
sS'showerthoughts'
p1334
I1
sS'stevenuniverse'
p1335
I0
sS'baseball'
p1336
I0
sS'wtf'
p1337
I0
sS'hearthstone'
p1338
I3
sS'news'
p1339
I0
sS'pokemontrades'
p1340
I0
sS'mma'
p1341
I0
sS'thesilphroad'
p1342
I3804
sS'globaloffensive'
p1343
I0
sS'nfl'
p1344
I0
sS'pcmasterrace'
p1345
I0
sS'pics'
p1346
I1
sS'movies'
p1347
I0
sS'askreddit'
p1348
I1
sS'games'
p1349
I2
sS'anime'
p1350
I0
sS'fitness'
p1351
I0
sS'bigbrother'
p1352
I0
ssS'DotA2'
p1353
(dp1354
S'overwatch'
p1355
I12
sS'pokemongo'
p1356
I15
sS'videos'
p1357
I0
sS'todayilearned'
p1358
I1
sS'cfb'
p1359
I0
sS'buildapc'
p1360
I13
sS'friendsafari'
p1361
I0
sS'wow'
p1362
I7
sS'politics'
p1363
I11
sS'nba'
p1364
I14
sS'globaloffensivetrade'
p1365
I0
sS'fantasyfootball'
p1366
I0
sS'relationships'
p1367
I2
sS'funny'
p1368
I7
sS'nomansskythegame'
p1369
I0
sS'pokemon'
p1370
I2
sS'squaredcircle'
p1371
I5
sS'adviceanimals'
p1372
I1
sS'olympics'
p1373
I1
sS'leagueoflegends'
p1374
I114
sS'hiphopheads'
p1375
I4
sS'worldnews'
p1376
I4
sS'2007scape'
p1377
I1
sS'the_donald'
p1378
I56
sS'soccer'
p1379
I5
sS'dota2'
p1380
I7335
sS'gaming'
p1381
I8
sS'gifs'
p1382
I3
sS'aww'
p1383
I0
sS'jailbreak'
p1384
I0
sS'destinythegame'
p1385
I0
sS'showerthoughts'
p1386
I5
sS'stevenuniverse'
p1387
I1
sS'baseball'
p1388
I0
sS'wtf'
p1389
I6
sS'hearthstone'
p1390
I16
sS'news'
p1391
I1
sS'pokemontrades'
p1392
I0
sS'mma'
p1393
I1
sS'thesilphroad'
p1394
I0
sS'globaloffensive'
p1395
I131
sS'nfl'
p1396
I2
sS'pcmasterrace'
p1397
I8
sS'pics'
p1398
I4
sS'movies'
p1399
I1
sS'askreddit'
p1400
I10
sS'games'
p1401
I5
sS'anime'
p1402
I8
sS'fitness'
p1403
I1
sS'bigbrother'
p1404
I0
ssS'gaming'
p1405
(dp1406
S'overwatch'
p1407
I32
sS'pokemongo'
p1408
I81
sS'videos'
p1409
I10
sS'todayilearned'
p1410
I4
sS'cfb'
p1411
I1
sS'buildapc'
p1412
I51
sS'friendsafari'
p1413
I0
sS'wow'
p1414
I4
sS'politics'
p1415
I9
sS'nba'
p1416
I5
sS'globaloffensivetrade'
p1417
I0
sS'fantasyfootball'
p1418
I0
sS'relationships'
p1419
I3
sS'funny'
p1420
I30
sS'nomansskythegame'
p1421
I342
sS'pokemon'
p1422
I26
sS'squaredcircle'
p1423
I9
sS'adviceanimals'
p1424
I9
sS'olympics'
p1425
I1
sS'leagueoflegends'
p1426
I10
sS'hiphopheads'
p1427
I0
sS'worldnews'
p1428
I1
sS'2007scape'
p1429
I6
sS'the_donald'
p1430
I13
sS'soccer'
p1431
I6
sS'dota2'
p1432
I10
sS'gaming'
p1433
I1543
sS'gifs'
p1434
I10
sS'aww'
p1435
I12
sS'jailbreak'
p1436
I0
sS'destinythegame'
p1437
I49
sS'showerthoughts'
p1438
I4
sS'stevenuniverse'
p1439
I2
sS'baseball'
p1440
I2
sS'wtf'
p1441
I19
sS'hearthstone'
p1442
I4
sS'news'
p1443
I1
sS'pokemontrades'
p1444
I0
sS'mma'
p1445
I1
sS'thesilphroad'
p1446
I4
sS'globaloffensive'
p1447
I9
sS'nfl'
p1448
I3
sS'pcmasterrace'
p1449
I1
sS'pics'
p1450
I28
sS'movies'
p1451
I6
sS'askreddit'
p1452
I25
sS'games'
p1453
I142
sS'anime'
p1454
I3
sS'fitness'
p1455
I5
sS'bigbrother'
p1456
I0
ssS'hiphopheads'
p1457
(dp1458
S'overwatch'
p1459
I2
sS'pokemongo'
p1460
I2
sS'videos'
p1461
I17
sS'todayilearned'
p1462
I0
sS'cfb'
p1463
I0
sS'buildapc'
p1464
I0
sS'friendsafari'
p1465
I0
sS'wow'
p1466
I0
sS'politics'
p1467
I3
sS'nba'
p1468
I21
sS'globaloffensivetrade'
p1469
I0
sS'fantasyfootball'
p1470
I1
sS'relationships'
p1471
I1
sS'funny'
p1472
I3
sS'nomansskythegame'
p1473
I2
sS'pokemon'
p1474
I0
sS'squaredcircle'
p1475
I7
sS'adviceanimals'
p1476
I0
sS'olympics'
p1477
I0
sS'leagueoflegends'
p1478
I0
sS'hiphopheads'
p1479
I1506
sS'worldnews'
p1480
I3
sS'2007scape'
p1481
I0
sS'the_donald'
p1482
I14
sS'soccer'
p1483
I4
sS'dota2'
p1484
I0
sS'gaming'
p1485
I0
sS'gifs'
p1486
I0
sS'aww'
p1487
I1
sS'jailbreak'
p1488
I0
sS'destinythegame'
p1489
I0
sS'showerthoughts'
p1490
I2
sS'stevenuniverse'
p1491
I0
sS'baseball'
p1492
I0
sS'wtf'
p1493
I0
sS'hearthstone'
p1494
I0
sS'news'
p1495
I17
sS'pokemontrades'
p1496
I0
sS'mma'
p1497
I3
sS'thesilphroad'
p1498
I2
sS'globaloffensive'
p1499
I1
sS'nfl'
p1500
I8
sS'pcmasterrace'
p1501
I1
sS'pics'
p1502
I0
sS'movies'
p1503
I4
sS'askreddit'
p1504
I8
sS'games'
p1505
I0
sS'anime'
p1506
I1
sS'fitness'
p1507
I0
sS'bigbrother'
p1508
I1
ssS'funny'
p1509
(dp1510
S'overwatch'
p1511
I1
sS'pokemongo'
p1512
I19
sS'videos'
p1513
I33
sS'todayilearned'
p1514
I21
sS'cfb'
p1515
I4
sS'buildapc'
p1516
I1
sS'friendsafari'
p1517
I0
sS'wow'
p1518
I1
sS'politics'
p1519
I42
sS'nba'
p1520
I5
sS'globaloffensivetrade'
p1521
I0
sS'fantasyfootball'
p1522
I0
sS'relationships'
p1523
I16
sS'funny'
p1524
I7824
sS'nomansskythegame'
p1525
I21
sS'pokemon'
p1526
I5
sS'squaredcircle'
p1527
I7
sS'adviceanimals'
p1528
I32
sS'olympics'
p1529
I6
sS'leagueoflegends'
p1530
I9
sS'hiphopheads'
p1531
I4
sS'worldnews'
p1532
I11
sS'2007scape'
p1533
I0
sS'the_donald'
p1534
I78
sS'soccer'
p1535
I2
sS'dota2'
p1536
I3
sS'gaming'
p1537
I44
sS'gifs'
p1538
I101
sS'aww'
p1539
I136
sS'jailbreak'
p1540
I1
sS'destinythegame'
p1541
I2
sS'showerthoughts'
p1542
I31
sS'stevenuniverse'
p1543
I0
sS'baseball'
p1544
I1
sS'wtf'
p1545
I92
sS'hearthstone'
p1546
I2
sS'news'
p1547
I18
sS'pokemontrades'
p1548
I0
sS'mma'
p1549
I3
sS'thesilphroad'
p1550
I4
sS'globaloffensive'
p1551
I5
sS'nfl'
p1552
I17
sS'pcmasterrace'
p1553
I20
sS'pics'
p1554
I204
sS'movies'
p1555
I21
sS'askreddit'
p1556
I115
sS'games'
p1557
I1
sS'anime'
p1558
I5
sS'fitness'
p1559
I20
sS'bigbrother'
p1560
I0
ssS'aww'
p1561
(dp1562
S'overwatch'
p1563
I2
sS'pokemongo'
p1564
I7
sS'videos'
p1565
I12
sS'todayilearned'
p1566
I4
sS'fitness'
p1567
I0
sS'cfb'
p1568
I0
sS'buildapc'
p1569
I0
sS'squaredcircle'
p1570
I0
sS'friendsafari'
p1571
I0
sS'politics'
p1572
I2
sS'nba'
p1573
I0
sS'globaloffensivetrade'
p1574
I0
sS'fantasyfootball'
p1575
I0
sS'relationships'
p1576
I1
sS'funny'
p1577
I57
sS'nomansskythegame'
p1578
I0
sS'pokemon'
p1579
I0
sS'bigbrother'
p1580
I0
sS'adviceanimals'
p1581
I3
sS'olympics'
p1582
I0
sS'leagueoflegends'
p1583
I1
sS'hiphopheads'
p1584
I0
sS'worldnews'
p1585
I3
sS'2007scape'
p1586
I1
sS'the_donald'
p1587
I5
sS'soccer'
p1588
I1
sS'dota2'
p1589
I0
sS'gaming'
p1590
I2
sS'globaloffensive'
p1591
I0
sS'aww'
p1592
I3181
sS'jailbreak'
p1593
I0
sS'destinythegame'
p1594
I0
sS'showerthoughts'
p1595
I4
sS'stevenuniverse'
p1596
I1
sS'baseball'
p1597
I0
sS'wtf'
p1598
I22
sS'hearthstone'
p1599
I0
sS'news'
p1600
I3
sS'pokemontrades'
p1601
I0
sS'mma'
p1602
I0
sS'thesilphroad'
p1603
I0
sS'gifs'
p1604
I35
sS'nfl'
p1605
I6
sS'pics'
p1606
I67
sS'movies'
p1607
I0
sS'askreddit'
p1608
I24
sS'games'
p1609
I0
sS'anime'
p1610
I1
sS'pcmasterrace'
p1611
I3
sS'wow'
p1612
I0
ssS'stevenuniverse'
p1613
(dp1614
S'overwatch'
p1615
I9
sS'pokemongo'
p1616
I4
sS'videos'
p1617
I0
sS'todayilearned'
p1618
I0
sS'fitness'
p1619
I0
sS'cfb'
p1620
I1
sS'buildapc'
p1621
I0
sS'squaredcircle'
p1622
I1
sS'friendsafari'
p1623
I0
sS'politics'
p1624
I0
sS'nba'
p1625
I0
sS'globaloffensivetrade'
p1626
I0
sS'fantasyfootball'
p1627
I0
sS'relationships'
p1628
I0
sS'funny'
p1629
I2
sS'nomansskythegame'
p1630
I2
sS'pokemon'
p1631
I2
sS'bigbrother'
p1632
I0
sS'adviceanimals'
p1633
I1
sS'olympics'
p1634
I0
sS'leagueoflegends'
p1635
I0
sS'hiphopheads'
p1636
I2
sS'worldnews'
p1637
I0
sS'2007scape'
p1638
I0
sS'the_donald'
p1639
I1
sS'soccer'
p1640
I0
sS'dota2'
p1641
I0
sS'gaming'
p1642
I0
sS'globaloffensive'
p1643
I0
sS'aww'
p1644
I1
sS'jailbreak'
p1645
I0
sS'destinythegame'
p1646
I2
sS'showerthoughts'
p1647
I1
sS'stevenuniverse'
p1648
I1269
sS'baseball'
p1649
I0
sS'wtf'
p1650
I0
sS'hearthstone'
p1651
I0
sS'news'
p1652
I0
sS'pokemontrades'
p1653
I0
sS'mma'
p1654
I0
sS'thesilphroad'
p1655
I0
sS'gifs'
p1656
I4
sS'nfl'
p1657
I0
sS'pics'
p1658
I4
sS'movies'
p1659
I1
sS'askreddit'
p1660
I8
sS'games'
p1661
I0
sS'anime'
p1662
I3
sS'pcmasterrace'
p1663
I0
sS'wow'
p1664
I1
ssS'Games'
p1665
(dp1666
S'overwatch'
p1667
I26
sS'pokemongo'
p1668
I38
sS'videos'
p1669
I3
sS'todayilearned'
p1670
I0
sS'cfb'
p1671
I0
sS'buildapc'
p1672
I4
sS'friendsafari'
p1673
I0
sS'wow'
p1674
I15
sS'politics'
p1675
I4
sS'nba'
p1676
I1
sS'globaloffensivetrade'
p1677
I0
sS'fantasyfootball'
p1678
I0
sS'relationships'
p1679
I0
sS'funny'
p1680
I0
sS'nomansskythegame'
p1681
I217
sS'pokemon'
p1682
I11
sS'squaredcircle'
p1683
I0
sS'adviceanimals'
p1684
I0
sS'olympics'
p1685
I0
sS'leagueoflegends'
p1686
I3
sS'hiphopheads'
p1687
I0
sS'worldnews'
p1688
I2
sS'2007scape'
p1689
I0
sS'the_donald'
p1690
I2
sS'soccer'
p1691
I0
sS'dota2'
p1692
I33
sS'gaming'
p1693
I298
sS'gifs'
p1694
I0
sS'aww'
p1695
I0
sS'jailbreak'
p1696
I0
sS'destinythegame'
p1697
I13
sS'showerthoughts'
p1698
I1
sS'stevenuniverse'
p1699
I1
sS'baseball'
p1700
I0
sS'wtf'
p1701
I0
sS'hearthstone'
p1702
I8
sS'news'
p1703
I2
sS'pokemontrades'
p1704
I0
sS'mma'
p1705
I0
sS'thesilphroad'
p1706
I11
sS'globaloffensive'
p1707
I3
sS'nfl'
p1708
I2
sS'pcmasterrace'
p1709
I6
sS'pics'
p1710
I0
sS'movies'
p1711
I11
sS'askreddit'
p1712
I2
sS'games'
p1713
I2369
sS'anime'
p1714
I3
sS'fitness'
p1715
I0
sS'bigbrother'
p1716
I0
ssS'AskReddit'
p1717
(dp1718
S'overwatch'
p1719
I68
sS'pokemongo'
p1720
I121
sS'videos'
p1721
I129
sS'todayilearned'
p1722
I181
sS'cfb'
p1723
I48
sS'buildapc'
p1724
I84
sS'friendsafari'
p1725
I2
sS'wow'
p1726
I28
sS'politics'
p1727
I574
sS'nba'
p1728
I52
sS'globaloffensivetrade'
p1729
I3
sS'fantasyfootball'
p1730
I5
sS'relationships'
p1731
I570
sS'funny'
p1732
I359
sS'nomansskythegame'
p1733
I75
sS'pokemon'
p1734
I40
sS'squaredcircle'
p1735
I105
sS'adviceanimals'
p1736
I87
sS'olympics'
p1737
I14
sS'leagueoflegends'
p1738
I109
sS'hiphopheads'
p1739
I40
sS'worldnews'
p1740
I274
sS'2007scape'
p1741
I62
sS'the_donald'
p1742
I8
sS'soccer'
p1743
I73
sS'dota2'
p1744
I74
sS'gaming'
p1745
I181
sS'gifs'
p1746
I77
sS'aww'
p1747
I196
sS'jailbreak'
p1748
I18
sS'destinythegame'
p1749
I42
sS'showerthoughts'
p1750
I258
sS'stevenuniverse'
p1751
I16
sS'baseball'
p1752
I21
sS'wtf'
p1753
I236
sS'hearthstone'
p1754
I34
sS'news'
p1755
I291
sS'pokemontrades'
p1756
I4
sS'mma'
p1757
I28
sS'thesilphroad'
p1758
I17
sS'globaloffensive'
p1759
I61
sS'nfl'
p1760
I68
sS'pcmasterrace'
p1761
I216
sS'pics'
p1762
I208
sS'movies'
p1763
I109
sS'askreddit'
p1764
I146085
sS'games'
p1765
I60
sS'anime'
p1766
I82
sS'fitness'
p1767
I225
sS'bigbrother'
p1768
I6
ssS'Fitness'
p1769
(dp1770
S'overwatch'
p1771
I0
sS'pokemongo'
p1772
I0
sS'videos'
p1773
I2
sS'todayilearned'
p1774
I2
sS'cfb'
p1775
I1
sS'buildapc'
p1776
I0
sS'friendsafari'
p1777
I0
sS'wow'
p1778
I1
sS'politics'
p1779
I0
sS'nba'
p1780
I0
sS'globaloffensivetrade'
p1781
I0
sS'fantasyfootball'
p1782
I0
sS'relationships'
p1783
I5
sS'funny'
p1784
I2
sS'nomansskythegame'
p1785
I0
sS'pokemon'
p1786
I0
sS'squaredcircle'
p1787
I1
sS'adviceanimals'
p1788
I0
sS'olympics'
p1789
I2
sS'leagueoflegends'
p1790
I1
sS'hiphopheads'
p1791
I0
sS'worldnews'
p1792
I0
sS'2007scape'
p1793
I0
sS'the_donald'
p1794
I2
sS'soccer'
p1795
I0
sS'dota2'
p1796
I0
sS'gaming'
p1797
I1
sS'gifs'
p1798
I1
sS'aww'
p1799
I0
sS'jailbreak'
p1800
I0
sS'destinythegame'
p1801
I0
sS'showerthoughts'
p1802
I570
sS'stevenuniverse'
p1803
I0
sS'baseball'
p1804
I1
sS'wtf'
p1805
I0
sS'hearthstone'
p1806
I0
sS'news'
p1807
I2
sS'pokemontrades'
p1808
I0
sS'mma'
p1809
I2
sS'thesilphroad'
p1810
I0
sS'globaloffensive'
p1811
I0
sS'nfl'
p1812
I0
sS'pcmasterrace'
p1813
I0
sS'pics'
p1814
I1
sS'movies'
p1815
I0
sS'askreddit'
p1816
I576
sS'games'
p1817
I0
sS'anime'
p1818
I0
sS'fitness'
p1819
I50371
sS'bigbrother'
p1820
I0
ssS'hearthstone'
p1821
(dp1822
S'overwatch'
p1823
I25
sS'pokemongo'
p1824
I29
sS'videos'
p1825
I2
sS'todayilearned'
p1826
I0
sS'fitness'
p1827
I0
sS'cfb'
p1828
I0
sS'buildapc'
p1829
I0
sS'squaredcircle'
p1830
I5
sS'friendsafari'
p1831
I0
sS'politics'
p1832
I2
sS'nba'
p1833
I0
sS'globaloffensivetrade'
p1834
I0
sS'fantasyfootball'
p1835
I0
sS'relationships'
p1836
I0
sS'funny'
p1837
I1
sS'nomansskythegame'
p1838
I0
sS'pokemon'
p1839
I1
sS'bigbrother'
p1840
I0
sS'adviceanimals'
p1841
I1
sS'olympics'
p1842
I0
sS'leagueoflegends'
p1843
I12
sS'hiphopheads'
p1844
I0
sS'worldnews'
p1845
I1
sS'2007scape'
p1846
I3
sS'the_donald'
p1847
I4
sS'soccer'
p1848
I3
sS'dota2'
p1849
I26
sS'gaming'
p1850
I6
sS'globaloffensive'
p1851
I1
sS'aww'
p1852
I0
sS'jailbreak'
p1853
I0
sS'destinythegame'
p1854
I1
sS'showerthoughts'
p1855
I2
sS'stevenuniverse'
p1856
I1
sS'baseball'
p1857
I0
sS'wtf'
p1858
I1
sS'hearthstone'
p1859
I6131
sS'news'
p1860
I0
sS'pokemontrades'
p1861
I0
sS'mma'
p1862
I0
sS'thesilphroad'
p1863
I5
sS'gifs'
p1864
I0
sS'nfl'
p1865
I0
sS'pics'
p1866
I2
sS'movies'
p1867
I1
sS'askreddit'
p1868
I8
sS'games'
p1869
I1
sS'anime'
p1870
I1
sS'pcmasterrace'
p1871
I5
sS'wow'
p1872
I25
ssS'news'
p1873
(dp1874
S'overwatch'
p1875
I1
sS'pokemongo'
p1876
I2
sS'videos'
p1877
I28
sS'todayilearned'
p1878
I12
sS'cfb'
p1879
I0
sS'buildapc'
p1880
I1
sS'friendsafari'
p1881
I0
sS'wow'
p1882
I1
sS'politics'
p1883
I176
sS'nba'
p1884
I5
sS'globaloffensivetrade'
p1885
I0
sS'fantasyfootball'
p1886
I0
sS'relationships'
p1887
I4
sS'funny'
p1888
I16
sS'nomansskythegame'
p1889
I2
sS'pokemon'
p1890
I0
sS'squaredcircle'
p1891
I4
sS'adviceanimals'
p1892
I5
sS'olympics'
p1893
I12
sS'leagueoflegends'
p1894
I0
sS'hiphopheads'
p1895
I3
sS'worldnews'
p1896
I139
sS'2007scape'
p1897
I0
sS'the_donald'
p1898
I211
sS'soccer'
p1899
I5
sS'dota2'
p1900
I0
sS'gaming'
p1901
I4
sS'gifs'
p1902
I3
sS'aww'
p1903
I19
sS'jailbreak'
p1904
I0
sS'destinythegame'
p1905
I0
sS'showerthoughts'
p1906
I4
sS'stevenuniverse'
p1907
I0
sS'baseball'
p1908
I0
sS'wtf'
p1909
I13
sS'hearthstone'
p1910
I1
sS'news'
p1911
I1225
sS'pokemontrades'
p1912
I0
sS'mma'
p1913
I1
sS'thesilphroad'
p1914
I0
sS'globaloffensive'
p1915
I0
sS'nfl'
p1916
I3
sS'pcmasterrace'
p1917
I1
sS'pics'
p1918
I9
sS'movies'
p1919
I4
sS'askreddit'
p1920
I41
sS'games'
p1921
I2
sS'anime'
p1922
I0
sS'fitness'
p1923
I4
sS'bigbrother'
p1924
I0
ssS'pokemontrades'
p1925
(dp1926
S'overwatch'
p1927
I0
sS'pokemongo'
p1928
I0
sS'videos'
p1929
I0
sS'todayilearned'
p1930
I0
sS'cfb'
p1931
I0
sS'buildapc'
p1932
I0
sS'friendsafari'
p1933
I19
sS'wow'
p1934
I0
sS'politics'
p1935
I0
sS'nba'
p1936
I0
sS'globaloffensivetrade'
p1937
I0
sS'fantasyfootball'
p1938
I0
sS'relationships'
p1939
I0
sS'funny'
p1940
I1
sS'nomansskythegame'
p1941
I0
sS'pokemon'
p1942
I18
sS'squaredcircle'
p1943
I0
sS'adviceanimals'
p1944
I0
sS'olympics'
p1945
I0
sS'leagueoflegends'
p1946
I0
sS'hiphopheads'
p1947
I0
sS'worldnews'
p1948
I0
sS'2007scape'
p1949
I0
sS'the_donald'
p1950
I0
sS'soccer'
p1951
I0
sS'dota2'
p1952
I0
sS'gaming'
p1953
I0
sS'gifs'
p1954
I0
sS'aww'
p1955
I0
sS'jailbreak'
p1956
I0
sS'destinythegame'
p1957
I0
sS'showerthoughts'
p1958
I0
sS'stevenuniverse'
p1959
I0
sS'baseball'
p1960
I0
sS'wtf'
p1961
I0
sS'hearthstone'
p1962
I0
sS'news'
p1963
I1
sS'pokemontrades'
p1964
I47585
sS'mma'
p1965
I0
sS'thesilphroad'
p1966
I0
sS'globaloffensive'
p1967
I0
sS'nfl'
p1968
I1
sS'pcmasterrace'
p1969
I0
sS'pics'
p1970
I0
sS'movies'
p1971
I0
sS'askreddit'
p1972
I0
sS'games'
p1973
I0
sS'anime'
p1974
I1
sS'fitness'
p1975
I0
sS'bigbrother'
p1976
I0
ssS'gifs'
p1977
(dp1978
S'overwatch'
p1979
I5
sS'pokemongo'
p1980
I10
sS'videos'
p1981
I47
sS'todayilearned'
p1982
I13
sS'cfb'
p1983
I0
sS'buildapc'
p1984
I1
sS'friendsafari'
p1985
I0
sS'wow'
p1986
I2
sS'politics'
p1987
I47
sS'nba'
p1988
I5
sS'globaloffensivetrade'
p1989
I0
sS'fantasyfootball'
p1990
I0
sS'relationships'
p1991
I6
sS'funny'
p1992
I140
sS'nomansskythegame'
p1993
I2
sS'pokemon'
p1994
I0
sS'squaredcircle'
p1995
I18
sS'adviceanimals'
p1996
I7
sS'olympics'
p1997
I13
sS'leagueoflegends'
p1998
I2
sS'hiphopheads'
p1999
I1
sS'worldnews'
p2000
I10
sS'2007scape'
p2001
I5
sS'the_donald'
p2002
I54
sS'soccer'
p2003
I7
sS'dota2'
p2004
I12
sS'gaming'
p2005
I12
sS'gifs'
p2006
I9447
sS'aww'
p2007
I146
sS'jailbreak'
p2008
I0
sS'destinythegame'
p2009
I2
sS'showerthoughts'
p2010
I6
sS'stevenuniverse'
p2011
I0
sS'baseball'
p2012
I3
sS'wtf'
p2013
I48
sS'hearthstone'
p2014
I5
sS'news'
p2015
I16
sS'pokemontrades'
p2016
I0
sS'mma'
p2017
I5
sS'thesilphroad'
p2018
I1
sS'globaloffensive'
p2019
I6
sS'nfl'
p2020
I20
sS'pcmasterrace'
p2021
I12
sS'pics'
p2022
I33
sS'movies'
p2023
I6
sS'askreddit'
p2024
I60
sS'games'
p2025
I1
sS'anime'
p2026
I4
sS'fitness'
p2027
I13
sS'bigbrother'
p2028
I1
ssS'Overwatch'
p2029
(dp2030
S'overwatch'
p2031
I31658
sS'pokemongo'
p2032
I23
sS'videos'
p2033
I4
sS'todayilearned'
p2034
I0
sS'cfb'
p2035
I2
sS'buildapc'
p2036
I51
sS'friendsafari'
p2037
I0
sS'wow'
p2038
I13
sS'politics'
p2039
I9
sS'nba'
p2040
I4
sS'globaloffensivetrade'
p2041
I1
sS'fantasyfootball'
p2042
I0
sS'relationships'
p2043
I1
sS'funny'
p2044
I12
sS'nomansskythegame'
p2045
I4
sS'pokemon'
p2046
I27
sS'squaredcircle'
p2047
I7
sS'adviceanimals'
p2048
I4
sS'olympics'
p2049
I1
sS'leagueoflegends'
p2050
I75
sS'hiphopheads'
p2051
I4
sS'worldnews'
p2052
I3
sS'2007scape'
p2053
I2
sS'the_donald'
p2054
I10
sS'soccer'
p2055
I4
sS'dota2'
p2056
I59
sS'gaming'
p2057
I24
sS'gifs'
p2058
I2
sS'aww'
p2059
I3
sS'jailbreak'
p2060
I0
sS'destinythegame'
p2061
I18
sS'showerthoughts'
p2062
I4
sS'stevenuniverse'
p2063
I5
sS'baseball'
p2064
I0
sS'wtf'
p2065
I0
sS'hearthstone'
p2066
I42
sS'news'
p2067
I3
sS'pokemontrades'
p2068
I0
sS'mma'
p2069
I0
sS'thesilphroad'
p2070
I0
sS'globaloffensive'
p2071
I47
sS'nfl'
p2072
I8
sS'pcmasterrace'
p2073
I49
sS'pics'
p2074
I2
sS'movies'
p2075
I2
sS'askreddit'
p2076
I10
sS'games'
p2077
I11
sS'anime'
p2078
I4
sS'fitness'
p2079
I0
sS'bigbrother'
p2080
I0
ssS'nfl'
p2081
(dp2082
S'overwatch'
p2083
I0
sS'pokemongo'
p2084
I7
sS'videos'
p2085
I13
sS'todayilearned'
p2086
I1
sS'cfb'
p2087
I61
sS'buildapc'
p2088
I0
sS'friendsafari'
p2089
I0
sS'wow'
p2090
I3
sS'politics'
p2091
I26
sS'nba'
p2092
I107
sS'globaloffensivetrade'
p2093
I0
sS'fantasyfootball'
p2094
I127
sS'relationships'
p2095
I0
sS'funny'
p2096
I3
sS'nomansskythegame'
p2097
I4
sS'pokemon'
p2098
I0
sS'squaredcircle'
p2099
I7
sS'adviceanimals'
p2100
I0
sS'olympics'
p2101
I1
sS'leagueoflegends'
p2102
I1
sS'hiphopheads'
p2103
I1
sS'worldnews'
p2104
I4
sS'2007scape'
p2105
I0
sS'the_donald'
p2106
I5
sS'soccer'
p2107
I22
sS'dota2'
p2108
I1
sS'gaming'
p2109
I2
sS'gifs'
p2110
I3
sS'aww'
p2111
I3
sS'jailbreak'
p2112
I0
sS'destinythegame'
p2113
I1
sS'showerthoughts'
p2114
I4
sS'stevenuniverse'
p2115
I0
sS'baseball'
p2116
I16
sS'wtf'
p2117
I2
sS'hearthstone'
p2118
I0
sS'news'
p2119
I11
sS'pokemontrades'
p2120
I0
sS'mma'
p2121
I10
sS'thesilphroad'
p2122
I0
sS'globaloffensive'
p2123
I1
sS'nfl'
p2124
I2567
sS'pcmasterrace'
p2125
I2
sS'pics'
p2126
I2
sS'movies'
p2127
I6
sS'askreddit'
p2128
I9
sS'games'
p2129
I2
sS'anime'
p2130
I1
sS'fitness'
p2131
I3
sS'bigbrother'
p2132
I1
ssS'CFB'
p2133
(dp2134
S'overwatch'
p2135
I0
sS'pokemongo'
p2136
I1
sS'videos'
p2137
I3
sS'todayilearned'
p2138
I0
sS'cfb'
p2139
I2213
sS'buildapc'
p2140
I0
sS'friendsafari'
p2141
I0
sS'wow'
p2142
I0
sS'politics'
p2143
I5
sS'nba'
p2144
I6
sS'globaloffensivetrade'
p2145
I0
sS'fantasyfootball'
p2146
I0
sS'relationships'
p2147
I2
sS'funny'
p2148
I1
sS'nomansskythegame'
p2149
I0
sS'pokemon'
p2150
I0
sS'squaredcircle'
p2151
I0
sS'adviceanimals'
p2152
I0
sS'olympics'
p2153
I0
sS'leagueoflegends'
p2154
I0
sS'hiphopheads'
p2155
I0
sS'worldnews'
p2156
I2
sS'2007scape'
p2157
I0
sS'the_donald'
p2158
I1
sS'soccer'
p2159
I4
sS'dota2'
p2160
I0
sS'gaming'
p2161
I0
sS'gifs'
p2162
I2
sS'aww'
p2163
I3
sS'jailbreak'
p2164
I0
sS'destinythegame'
p2165
I0
sS'showerthoughts'
p2166
I1
sS'stevenuniverse'
p2167
I0
sS'baseball'
p2168
I10
sS'wtf'
p2169
I2
sS'hearthstone'
p2170
I1
sS'news'
p2171
I0
sS'pokemontrades'
p2172
I0
sS'mma'
p2173
I0
sS'thesilphroad'
p2174
I0
sS'globaloffensive'
p2175
I0
sS'nfl'
p2176
I23
sS'pcmasterrace'
p2177
I1
sS'pics'
p2178
I0
sS'movies'
p2179
I1
sS'askreddit'
p2180
I1
sS'games'
p2181
I0
sS'anime'
p2182
I0
sS'fitness'
p2183
I1
sS'bigbrother'
p2184
I0
ssS'pics'
p2185
(dp2186
S'overwatch'
p2187
I2
sS'pokemongo'
p2188
I5
sS'videos'
p2189
I31
sS'todayilearned'
p2190
I42
sS'cfb'
p2191
I0
sS'buildapc'
p2192
I0
sS'friendsafari'
p2193
I0
sS'wow'
p2194
I5
sS'politics'
p2195
I90
sS'nba'
p2196
I8
sS'globaloffensivetrade'
p2197
I0
sS'fantasyfootball'
p2198
I0
sS'relationships'
p2199
I5
sS'funny'
p2200
I222
sS'nomansskythegame'
p2201
I0
sS'pokemon'
p2202
I2
sS'squaredcircle'
p2203
I5
sS'adviceanimals'
p2204
I14
sS'olympics'
p2205
I13
sS'leagueoflegends'
p2206
I4
sS'hiphopheads'
p2207
I6
sS'worldnews'
p2208
I36
sS'2007scape'
p2209
I1
sS'the_donald'
p2210
I185
sS'soccer'
p2211
I12
sS'dota2'
p2212
I5
sS'gaming'
p2213
I10
sS'gifs'
p2214
I88
sS'aww'
p2215
I166
sS'jailbreak'
p2216
I0
sS'destinythegame'
p2217
I2
sS'showerthoughts'
p2218
I14
sS'stevenuniverse'
p2219
I3
sS'baseball'
p2220
I2
sS'wtf'
p2221
I58
sS'hearthstone'
p2222
I1
sS'news'
p2223
I38
sS'pokemontrades'
p2224
I0
sS'mma'
p2225
I4
sS'thesilphroad'
p2226
I0
sS'globaloffensive'
p2227
I1
sS'nfl'
p2228
I5
sS'pcmasterrace'
p2229
I11
sS'pics'
p2230
I9030
sS'movies'
p2231
I16
sS'askreddit'
p2232
I163
sS'games'
p2233
I2
sS'anime'
p2234
I0
sS'fitness'
p2235
I7
sS'bigbrother'
p2236
I0
ssS'movies'
p2237
(dp2238
S'overwatch'
p2239
I0
sS'pokemongo'
p2240
I2
sS'videos'
p2241
I25
sS'todayilearned'
p2242
I27
sS'fitness'
p2243
I1
sS'cfb'
p2244
I0
sS'buildapc'
p2245
I0
sS'squaredcircle'
p2246
I9
sS'friendsafari'
p2247
I0
sS'politics'
p2248
I26
sS'nba'
p2249
I5
sS'globaloffensivetrade'
p2250
I0
sS'fantasyfootball'
p2251
I0
sS'relationships'
p2252
I0
sS'funny'
p2253
I13
sS'nomansskythegame'
p2254
I2
sS'pokemon'
p2255
I1
sS'bigbrother'
p2256
I0
sS'adviceanimals'
p2257
I1
sS'olympics'
p2258
I1
sS'leagueoflegends'
p2259
I0
sS'hiphopheads'
p2260
I1
sS'worldnews'
p2261
I16
sS'2007scape'
p2262
I0
sS'the_donald'
p2263
I31
sS'soccer'
p2264
I3
sS'dota2'
p2265
I1
sS'gaming'
p2266
I9
sS'globaloffensive'
p2267
I0
sS'aww'
p2268
I2
sS'jailbreak'
p2269
I1
sS'destinythegame'
p2270
I0
sS'showerthoughts'
p2271
I10
sS'stevenuniverse'
p2272
I0
sS'baseball'
p2273
I2
sS'wtf'
p2274
I7
sS'hearthstone'
p2275
I0
sS'news'
p2276
I5
sS'pokemontrades'
p2277
I0
sS'mma'
p2278
I2
sS'thesilphroad'
p2279
I0
sS'gifs'
p2280
I5
sS'nfl'
p2281
I3
sS'pics'
p2282
I15
sS'movies'
p2283
I2641
sS'askreddit'
p2284
I34
sS'games'
p2285
I7
sS'anime'
p2286
I19
sS'pcmasterrace'
p2287
I2
sS'wow'
p2288
I3
ssS'AdviceAnimals'
p2289
(dp2290
S'overwatch'
p2291
I0
sS'pokemongo'
p2292
I4
sS'videos'
p2293
I14
sS'todayilearned'
p2294
I7
sS'cfb'
p2295
I0
sS'buildapc'
p2296
I3
sS'friendsafari'
p2297
I0
sS'wow'
p2298
I2
sS'politics'
p2299
I89
sS'nba'
p2300
I3
sS'globaloffensivetrade'
p2301
I0
sS'fantasyfootball'
p2302
I0
sS'relationships'
p2303
I36
sS'funny'
p2304
I31
sS'nomansskythegame'
p2305
I2
sS'pokemon'
p2306
I1
sS'squaredcircle'
p2307
I0
sS'adviceanimals'
p2308
I443
sS'olympics'
p2309
I4
sS'leagueoflegends'
p2310
I1
sS'hiphopheads'
p2311
I0
sS'worldnews'
p2312
I17
sS'2007scape'
p2313
I0
sS'the_donald'
p2314
I113
sS'soccer'
p2315
I2
sS'dota2'
p2316
I2
sS'gaming'
p2317
I6
sS'gifs'
p2318
I2
sS'aww'
p2319
I9
sS'jailbreak'
p2320
I0
sS'destinythegame'
p2321
I0
sS'showerthoughts'
p2322
I12
sS'stevenuniverse'
p2323
I0
sS'baseball'
p2324
I0
sS'wtf'
p2325
I17
sS'hearthstone'
p2326
I1
sS'news'
p2327
I15
sS'pokemontrades'
p2328
I0
sS'mma'
p2329
I1
sS'thesilphroad'
p2330
I1
sS'globaloffensive'
p2331
I0
sS'nfl'
p2332
I3
sS'pcmasterrace'
p2333
I15
sS'pics'
p2334
I23
sS'movies'
p2335
I11
sS'askreddit'
p2336
I46
sS'games'
p2337
I0
sS'anime'
p2338
I1
sS'fitness'
p2339
I12
sS'bigbrother'
p2340
I1
ssS'anime'
p2341
(dp2342
S'overwatch'
p2343
I6
sS'pokemongo'
p2344
I2
sS'videos'
p2345
I1
sS'todayilearned'
p2346
I1
sS'cfb'
p2347
I0
sS'buildapc'
p2348
I0
sS'friendsafari'
p2349
I0
sS'wow'
p2350
I2
sS'politics'
p2351
I3
sS'nba'
p2352
I0
sS'globaloffensivetrade'
p2353
I0
sS'fantasyfootball'
p2354
I0
sS'relationships'
p2355
I0
sS'funny'
p2356
I3
sS'nomansskythegame'
p2357
I0
sS'pokemon'
p2358
I15
sS'squaredcircle'
p2359
I3
sS'adviceanimals'
p2360
I1
sS'olympics'
p2361
I0
sS'leagueoflegends'
p2362
I7
sS'hiphopheads'
p2363
I2
sS'worldnews'
p2364
I10
sS'2007scape'
p2365
I0
sS'the_donald'
p2366
I5
sS'soccer'
p2367
I0
sS'dota2'
p2368
I16
sS'gaming'
p2369
I2
sS'gifs'
p2370
I1
sS'aww'
p2371
I1
sS'jailbreak'
p2372
I0
sS'destinythegame'
p2373
I0
sS'showerthoughts'
p2374
I0
sS'stevenuniverse'
p2375
I0
sS'baseball'
p2376
I0
sS'wtf'
p2377
I4
sS'hearthstone'
p2378
I1
sS'news'
p2379
I4
sS'pokemontrades'
p2380
I0
sS'mma'
p2381
I0
sS'thesilphroad'
p2382
I0
sS'globaloffensive'
p2383
I2
sS'nfl'
p2384
I2
sS'pcmasterrace'
p2385
I1
sS'pics'
p2386
I0
sS'movies'
p2387
I7
sS'askreddit'
p2388
I7
sS'games'
p2389
I1
sS'anime'
p2390
I6939
sS'fitness'
p2391
I1
sS'bigbrother'
p2392
I0
ssS'baseball'
p2393
(dp2394
S'overwatch'
p2395
I0
sS'pokemongo'
p2396
I0
sS'videos'
p2397
I1
sS'todayilearned'
p2398
I2
sS'cfb'
p2399
I10
sS'buildapc'
p2400
I0
sS'friendsafari'
p2401
I0
sS'wow'
p2402
I0
sS'politics'
p2403
I3
sS'nba'
p2404
I43
sS'globaloffensivetrade'
p2405
I0
sS'fantasyfootball'
p2406
I1
sS'relationships'
p2407
I0
sS'funny'
p2408
I2
sS'nomansskythegame'
p2409
I0
sS'pokemon'
p2410
I0
sS'squaredcircle'
p2411
I4
sS'adviceanimals'
p2412
I0
sS'olympics'
p2413
I0
sS'leagueoflegends'
p2414
I0
sS'hiphopheads'
p2415
I0
sS'worldnews'
p2416
I0
sS'2007scape'
p2417
I0
sS'the_donald'
p2418
I3
sS'soccer'
p2419
I12
sS'dota2'
p2420
I0
sS'gaming'
p2421
I0
sS'gifs'
p2422
I0
sS'aww'
p2423
I0
sS'jailbreak'
p2424
I0
sS'destinythegame'
p2425
I0
sS'showerthoughts'
p2426
I0
sS'stevenuniverse'
p2427
I0
sS'baseball'
p2428
I1125
sS'wtf'
p2429
I0
sS'hearthstone'
p2430
I0
sS'news'
p2431
I1
sS'pokemontrades'
p2432
I0
sS'mma'
p2433
I2
sS'thesilphroad'
p2434
I0
sS'globaloffensive'
p2435
I0
sS'nfl'
p2436
I26
sS'pcmasterrace'
p2437
I0
sS'pics'
p2438
I1
sS'movies'
p2439
I0
sS'askreddit'
p2440
I0
sS'games'
p2441
I0
sS'anime'
p2442
I0
sS'fitness'
p2443
I0
sS'bigbrother'
p2444
I0
ssS'The_Donald'
p2445
(dp2446
S'overwatch'
p2447
I1
sS'pokemongo'
p2448
I3
sS'videos'
p2449
I39
sS'todayilearned'
p2450
I4
sS'fitness'
p2451
I7
sS'cfb'
p2452
I2
sS'buildapc'
p2453
I0
sS'squaredcircle'
p2454
I2
sS'friendsafari'
p2455
I0
sS'politics'
p2456
I3415
sS'nba'
p2457
I14
sS'globaloffensivetrade'
p2458
I1
sS'fantasyfootball'
p2459
I0
sS'relationships'
p2460
I2
sS'funny'
p2461
I18
sS'nomansskythegame'
p2462
I0
sS'pokemon'
p2463
I1
sS'bigbrother'
p2464
I0
sS'adviceanimals'
p2465
I3
sS'olympics'
p2466
I2
sS'leagueoflegends'
p2467
I3
sS'hiphopheads'
p2468
I0
sS'worldnews'
p2469
I124
sS'2007scape'
p2470
I2
sS'the_donald'
p2471
I5794
sS'soccer'
p2472
I1
sS'dota2'
p2473
I5
sS'gaming'
p2474
I1
sS'globaloffensive'
p2475
I2
sS'aww'
p2476
I10
sS'jailbreak'
p2477
I0
sS'destinythegame'
p2478
I1
sS'showerthoughts'
p2479
I5
sS'stevenuniverse'
p2480
I0
sS'baseball'
p2481
I1
sS'wtf'
p2482
I7
sS'hearthstone'
p2483
I0
sS'news'
p2484
I203
sS'pokemontrades'
p2485
I0
sS'mma'
p2486
I2
sS'thesilphroad'
p2487
I0
sS'gifs'
p2488
I9
sS'nfl'
p2489
I20
sS'pics'
p2490
I44
sS'movies'
p2491
I1
sS'askreddit'
p2492
I38
sS'games'
p2493
I0
sS'anime'
p2494
I1
sS'pcmasterrace'
p2495
I3
sS'wow'
p2496
I0
ssS'MMA'
p2497
(dp2498
S'overwatch'
p2499
I0
sS'pokemongo'
p2500
I1
sS'videos'
p2501
I3
sS'todayilearned'
p2502
I2
sS'cfb'
p2503
I0
sS'buildapc'
p2504
I1
sS'friendsafari'
p2505
I0
sS'wow'
p2506
I0
sS'politics'
p2507
I5
sS'nba'
p2508
I8
sS'globaloffensivetrade'
p2509
I0
sS'fantasyfootball'
p2510
I0
sS'relationships'
p2511
I0
sS'funny'
p2512
I2
sS'nomansskythegame'
p2513
I1
sS'pokemon'
p2514
I0
sS'squaredcircle'
p2515
I67
sS'adviceanimals'
p2516
I0
sS'olympics'
p2517
I1
sS'leagueoflegends'
p2518
I0
sS'hiphopheads'
p2519
I2
sS'worldnews'
p2520
I0
sS'2007scape'
p2521
I0
sS'the_donald'
p2522
I9
sS'soccer'
p2523
I9
sS'dota2'
p2524
I1
sS'gaming'
p2525
I0
sS'gifs'
p2526
I3
sS'aww'
p2527
I2
sS'jailbreak'
p2528
I0
sS'destinythegame'
p2529
I0
sS'showerthoughts'
p2530
I0
sS'stevenuniverse'
p2531
I0
sS'baseball'
p2532
I1
sS'wtf'
p2533
I7
sS'hearthstone'
p2534
I0
sS'news'
p2535
I3
sS'pokemontrades'
p2536
I0
sS'mma'
p2537
I2099
sS'thesilphroad'
p2538
I0
sS'globaloffensive'
p2539
I0
sS'nfl'
p2540
I10
sS'pcmasterrace'
p2541
I1
sS'pics'
p2542
I1
sS'movies'
p2543
I1
sS'askreddit'
p2544
I3
sS'games'
p2545
I0
sS'anime'
p2546
I0
sS'fitness'
p2547
I6
sS'bigbrother'
p2548
I0
ssS'wow'
p2549
(dp2550
S'overwatch'
p2551
I29
sS'pokemongo'
p2552
I3
sS'videos'
p2553
I1
sS'todayilearned'
p2554
I0
sS'cfb'
p2555
I0
sS'buildapc'
p2556
I34
sS'friendsafari'
p2557
I0
sS'wow'
p2558
I4286
sS'politics'
p2559
I1
sS'nba'
p2560
I0
sS'globaloffensivetrade'
p2561
I0
sS'fantasyfootball'
p2562
I0
sS'relationships'
p2563
I2
sS'funny'
p2564
I2
sS'nomansskythegame'
p2565
I4
sS'pokemon'
p2566
I4
sS'squaredcircle'
p2567
I7
sS'adviceanimals'
p2568
I0
sS'olympics'
p2569
I0
sS'leagueoflegends'
p2570
I19
sS'hiphopheads'
p2571
I0
sS'worldnews'
p2572
I1
sS'2007scape'
p2573
I2
sS'the_donald'
p2574
I4
sS'soccer'
p2575
I0
sS'dota2'
p2576
I13
sS'gaming'
p2577
I6
sS'gifs'
p2578
I3
sS'aww'
p2579
I4
sS'jailbreak'
p2580
I0
sS'destinythegame'
p2581
I0
sS'showerthoughts'
p2582
I3
sS'stevenuniverse'
p2583
I1
sS'baseball'
p2584
I0
sS'wtf'
p2585
I3
sS'hearthstone'
p2586
I15
sS'news'
p2587
I0
sS'pokemontrades'
p2588
I0
sS'mma'
p2589
I0
sS'thesilphroad'
p2590
I0
sS'globaloffensive'
p2591
I7
sS'nfl'
p2592
I3
sS'pcmasterrace'
p2593
I16
sS'pics'
p2594
I0
sS'movies'
p2595
I3
sS'askreddit'
p2596
I1
sS'games'
p2597
I7
sS'anime'
p2598
I2
sS'fitness'
p2599
I0
sS'bigbrother'
p2600
I0
ss.